; Function Attrs: mustprogress nofree norecurse nosync nounwind willreturn memory(read, inaccessiblemem: none) uwtable
define i32 @Tim_ManBoxIsBlack(ptr noundef readonly captures(none) %0, i32 noundef %1) local_unnamed_addr #3 {
  %.val = load ptr, ptr %0, align 8, !tbaa !3
  %3 = getelementptr i8, ptr %.val, i64 8
  %.val.val = load ptr, ptr %3, align 8, !tbaa !15
  %4 = sext i32 %1 to i64
  %5 = getelementptr inbounds ptr, ptr %.val.val, i64 %4
  %6 = load ptr, ptr %5, align 8, !tbaa !19
  %7 = getelementptr inbounds nuw i8, ptr %6, i64 24
  %8 = load i32, ptr %7, align 4, !tbaa !23
  ret i32 %8
}